target datalayout = "e-m:e-p270:32:32-p271:32:32-p272:64:64-i64:64-i128:128-f80:128-n8:16:32:64-S128"
target triple = "x86_64-unknown-linux-gnu"

%"class.google::protobuf::internal::UnknownFieldSetFieldSkipper" = type { %"class.google::protobuf::internal::FieldSkipper", ptr }
%"class.google::protobuf::internal::FieldSkipper" = type { ptr }
%"class.google::protobuf::io::CodedInputStream" = type { ptr, ptr, ptr, i32, i32, i32, i8, i8, i8, i32, i32, i32, i32, i32, ptr, ptr }

; Function Attrs: mustprogress nounwind uwtable
define linkonce_odr hidden noundef i32 @_ZN6google8protobuf8internal14WireFormatLite14GetTagWireTypeEj(i32 noundef %tag) #5 comdat align 2 {
entry:
  %tag.addr = alloca i32, align 4
  store i32 %tag, ptr %tag.addr, align 4
  %0 = load i32, ptr %tag.addr, align 4
  %and = and i32 %0, 7
  ret i32 %and
}

; Function Attrs: mustprogress nounwind uwtable
define linkonce_odr hidden void @_ZN6google8protobuf2io16CodedInputStream7AdvanceEi(ptr noundef nonnull align 8 dereferenceable(80) %this, i32 noundef %amount) #5 comdat align 2 {
entry:
  %this.addr = alloca ptr, align 8
  %amount.addr = alloca i32, align 4
  store ptr %this, ptr %this.addr, align 8
  store i32 %amount, ptr %amount.addr, align 4
  %this1 = load ptr, ptr %this.addr, align 8
  %0 = load i32, ptr %amount.addr, align 4
  %buffer_ = getelementptr inbounds %"class.google::protobuf::io::CodedInputStream", ptr %this1, i32 0, i32 0
  %1 = load ptr, ptr %buffer_, align 8
  %idx.ext = sext i32 %0 to i64
  %add.ptr = getelementptr inbounds i8, ptr %1, i64 %idx.ext
  store ptr %add.ptr, ptr %buffer_, align 8
  ret void
}

; Function Attrs: mustprogress uwtable
define noundef zeroext i1 @_ZN6google8protobuf8internal10WireFormat11SkipMessageEPNS0_2io16CodedInputStreamEPNS0_15UnknownFieldSetE(ptr noundef %input, ptr noundef %unknown_fields) #4 align 2 {
entry:
  %retval.i = alloca i32, align 4
  %this.addr.i8 = alloca ptr, align 8
  %v.i = alloca i32, align 4
  %this.addr.i = alloca ptr, align 8
  %retval = alloca i1, align 1
  %input.addr = alloca ptr, align 8
  %unknown_fields.addr = alloca ptr, align 8
  %tag = alloca i32, align 4
  %wire_type = alloca i32, align 4
  store ptr %input, ptr %input.addr, align 8
  store ptr %unknown_fields, ptr %unknown_fields.addr, align 8
  br label %while.body

while.body:                                       ; preds = %if.end7, %entry
  %0 = load ptr, ptr %input.addr, align 8
  store ptr %0, ptr %this.addr.i, align 8
  %this1.i = load ptr, ptr %this.addr.i, align 8
  store ptr %this1.i, ptr %this.addr.i8, align 8
  %this1.i9 = load ptr, ptr %this.addr.i8, align 8
  store i32 0, ptr %v.i, align 4
  %1 = load ptr, ptr %this1.i9, align 8
  %buffer_end_.i = getelementptr inbounds %"class.google::protobuf::io::CodedInputStream", ptr %this1.i9, i32 0, i32 1
  %2 = load ptr, ptr %buffer_end_.i, align 8
  %cmp.i = icmp ult ptr %1, %2
  br i1 %cmp.i, label %if.then.i, label %if.end5.i

if.then.i:                                        ; preds = %while.body
  %3 = load ptr, ptr %this1.i9, align 8
  %4 = load i8, ptr %3, align 1
  %conv.i = zext i8 %4 to i32
  store i32 %conv.i, ptr %v.i, align 4
  %5 = load i32, ptr %v.i, align 4
  %cmp3.i = icmp ult i32 %5, 128
  br i1 %cmp3.i, label %if.then4.i, label %if.end.i

if.then4.i:                                       ; preds = %if.then.i
  call void @_ZN6google8protobuf2io16CodedInputStream7AdvanceEi(ptr noundef nonnull align 8 dereferenceable(80) %this1.i9, i32 noundef 1)
  %6 = load i32, ptr %v.i, align 4
  store i32 %6, ptr %retval.i, align 4
  br label %_ZN6google8protobuf2io16CodedInputStream16ReadTagNoLastTagEv.exit

if.end.i:                                         ; preds = %if.then.i
  br label %if.end5.i

if.end5.i:                                        ; preds = %if.end.i, %while.body
  %7 = load i32, ptr %v.i, align 4
  %call.i10 = call noundef i32 @_ZN6google8protobuf2io16CodedInputStream15ReadTagFallbackEj(ptr noundef nonnull align 8 dereferenceable(80) %this1.i9, i32 noundef %7)
  store i32 %call.i10, ptr %v.i, align 4
  %8 = load i32, ptr %v.i, align 4
  store i32 %8, ptr %retval.i, align 4
  br label %_ZN6google8protobuf2io16CodedInputStream16ReadTagNoLastTagEv.exit

_ZN6google8protobuf2io16CodedInputStream16ReadTagNoLastTagEv.exit: ; preds = %if.end5.i, %if.then4.i
  %9 = load i32, ptr %retval.i, align 4
  %last_tag_.i = getelementptr inbounds %"class.google::protobuf::io::CodedInputStream", ptr %this1.i, i32 0, i32 5
  store i32 %9, ptr %last_tag_.i, align 8
  store i32 %9, ptr %tag, align 4
  %10 = load i32, ptr %tag, align 4
  %cmp = icmp eq i32 %10, 0
  br i1 %cmp, label %if.then, label %if.end

if.then:                                          ; preds = %_ZN6google8protobuf2io16CodedInputStream16ReadTagNoLastTagEv.exit
  store i1 true, ptr %retval, align 1
  br label %return

if.end:                                           ; preds = %_ZN6google8protobuf2io16CodedInputStream16ReadTagNoLastTagEv.exit
  %11 = load i32, ptr %tag, align 4
  %call1 = call noundef i32 @_ZN6google8protobuf8internal14WireFormatLite14GetTagWireTypeEj(i32 noundef %11)
  store i32 %call1, ptr %wire_type, align 4
  %12 = load i32, ptr %wire_type, align 4
  %cmp2 = icmp eq i32 %12, 4
  br i1 %cmp2, label %if.then3, label %if.end4

if.then3:                                         ; preds = %if.end
  store i1 true, ptr %retval, align 1
  br label %return

if.end4:                                          ; preds = %if.end
  %13 = load ptr, ptr %input.addr, align 8
  %14 = load i32, ptr %tag, align 4
  %15 = load ptr, ptr %unknown_fields.addr, align 8
  %call5 = call noundef zeroext i1 @_ZN6google8protobuf8internal10WireFormat9SkipFieldEPNS0_2io16CodedInputStreamEjPNS0_15UnknownFieldSetE(ptr noundef %13, i32 noundef %14, ptr noundef %15)
  br i1 %call5, label %if.end7, label %if.then6

if.then6:                                         ; preds = %if.end4
  store i1 false, ptr %retval, align 1
  br label %return

if.end7:                                          ; preds = %if.end4
  br label %while.body, !llvm.loop !4

return:                                           ; preds = %if.then6, %if.then3, %if.then
  %16 = load i1, ptr %retval, align 1
  ret i1 %16
}

; Function Attrs: mustprogress uwtable
define noundef zeroext i1 @_ZN6google8protobuf8internal27UnknownFieldSetFieldSkipper11SkipMessageEPNS0_2io16CodedInputStreamE(ptr noundef nonnull align 8 dereferenceable(16) %this, ptr noundef %input) unnamed_addr #4 align 2 {
entry:
  %this.addr = alloca ptr, align 8
  %input.addr = alloca ptr, align 8
  store ptr %this, ptr %this.addr, align 8
  store ptr %input, ptr %input.addr, align 8
  %this1 = load ptr, ptr %this.addr, align 8
  %0 = load ptr, ptr %input.addr, align 8
  %unknown_fields_ = getelementptr inbounds %"class.google::protobuf::internal::UnknownFieldSetFieldSkipper", ptr %this1, i32 0, i32 1
  %1 = load ptr, ptr %unknown_fields_, align 8
  %call = call noundef zeroext i1 @_ZN6google8protobuf8internal10WireFormat11SkipMessageEPNS0_2io16CodedInputStreamEPNS0_15UnknownFieldSetE(ptr noundef %0, ptr noundef %1)
  ret i1 %call
}