; Function Attrs: mustprogress uwtable
define noundef zeroext i1 @_ZN6google8protobuf8internal27UnknownFieldSetFieldSkipper11SkipMessageEPNS0_2io16CodedInputStreamE(ptr noundef nonnull readonly align 8 captures(none) dereferenceable(16) %this, ptr noundef %input) unnamed_addr #3 align 2 {
entry:
  %unknown_fields_ = getelementptr inbounds nuw i8, ptr %this, i64 8
  %0 = load ptr, ptr %unknown_fields_, align 8
  %buffer_end_.i.i = getelementptr inbounds nuw i8, ptr %input, i64 8
  %last_tag_.i.i = getelementptr inbounds nuw i8, ptr %input, i64 32
  br label %while.body.i

while.body.i:                                     ; preds = %if.end4.i, %entry
  %1 = load ptr, ptr %input, align 8
  %2 = load ptr, ptr %buffer_end_.i.i, align 8
  %cmp.i.i = icmp ult ptr %1, %2
  br i1 %cmp.i.i, label %if.then.i.i, label %if.end5.i.i

if.then.i.i:                                      ; preds = %while.body.i
  %3 = load i8, ptr %1, align 1
  %conv.i.i = zext i8 %3 to i32
  %cmp3.i.i = icmp sgt i8 %3, -1
  br i1 %cmp3.i.i, label %if.then4.i.i, label %if.end5.i.i

if.then4.i.i:                                     ; preds = %if.then.i.i
  %add.ptr.i.i = getelementptr inbounds nuw i8, ptr %1, i64 1
  store ptr %add.ptr.i.i, ptr %input, align 8
  br label %_ZN6google8protobuf2io16CodedInputStream16ReadTagNoLastTagEv.exit.i

if.end5.i.i:                                      ; preds = %if.then.i.i, %while.body.i
  %v.i.0.i = phi i32 [ %conv.i.i, %if.then.i.i ], [ 0, %while.body.i ]
  %call.i10.i = tail call noundef i32 @_ZN6google8protobuf2io16CodedInputStream15ReadTagFallbackEj(ptr noundef nonnull align 8 dereferenceable(80) %input, i32 noundef %v.i.0.i)
  br label %_ZN6google8protobuf2io16CodedInputStream16ReadTagNoLastTagEv.exit.i

_ZN6google8protobuf2io16CodedInputStream16ReadTagNoLastTagEv.exit.i: ; preds = %if.end5.i.i, %if.then4.i.i
  %retval.i.0.i = phi i32 [ %conv.i.i, %if.then4.i.i ], [ %call.i10.i, %if.end5.i.i ]
  store i32 %retval.i.0.i, ptr %last_tag_.i.i, align 8
  %cmp.i = icmp eq i32 %retval.i.0.i, 0
  %and.i.i = and i32 %retval.i.0.i, 7
  %cmp2.i = icmp eq i32 %and.i.i, 4
  %or.cond.i = or i1 %cmp.i, %cmp2.i
  br i1 %or.cond.i, label %_ZN6google8protobuf8internal10WireFormat11SkipMessageEPNS0_2io16CodedInputStreamEPNS0_15UnknownFieldSetE.exit, label %if.end4.i

if.end4.i:                                        ; preds = %_ZN6google8protobuf2io16CodedInputStream16ReadTagNoLastTagEv.exit.i
  %call5.i = tail call noundef zeroext i1 @_ZN6google8protobuf8internal10WireFormat9SkipFieldEPNS0_2io16CodedInputStreamEjPNS0_15UnknownFieldSetE(ptr noundef nonnull %input, i32 noundef %retval.i.0.i, ptr noundef %0)
  br i1 %call5.i, label %while.body.i, label %_ZN6google8protobuf8internal10WireFormat11SkipMessageEPNS0_2io16CodedInputStreamEPNS0_15UnknownFieldSetE.exit, !llvm.loop !4

_ZN6google8protobuf8internal10WireFormat11SkipMessageEPNS0_2io16CodedInputStreamEPNS0_15UnknownFieldSetE.exit: ; preds = %_ZN6google8protobuf2io16CodedInputStream16ReadTagNoLastTagEv.exit.i, %if.end4.i
  ret i1 %or.cond.i
}